target datalayout = "e-m:e-p270:32:32-p271:32:32-p272:64:64-i64:64-i128:128-f80:128-n8:16:32:64-S128"
target triple = "x86_64-pc-linux-gnu"

%struct.AVFilterContext = type { ptr, ptr, ptr, ptr, ptr, i32, ptr, ptr, i32, ptr, ptr, i32, i32, ptr, ptr, ptr, ptr, i32, ptr, i32, i32 }
%struct.AudioFIRContext = type { ptr, float, float, float, i32, float, float, float, i32, i32, float, i32, i32, i32, %struct.AVRational, i32, i32, i32, i32, i32, i32, i32, i32, [32 x i32], [32 x i32], [32 x i32], [32 x i32], [32 x i32], i32, i32, i32, ptr, ptr, [32 x [1024 x %struct.AudioFIRSegment]], ptr, [2 x ptr], [2 x ptr], [32 x ptr], [32 x ptr], i32, i32, i64, %struct.AudioFIRDSPContext, ptr }
%struct.AVRational = type { i32, i32 }
%struct.AudioFIRSegment = type { i32, i32, i32, i32, i32, i32, i32, ptr, ptr, ptr, ptr, ptr, ptr, ptr, ptr, ptr, ptr, ptr, ptr, ptr, ptr, ptr, ptr, ptr }
%struct.AudioFIRDSPContext = type { ptr, ptr }

; Function Attrs: nounwind uwtable
define internal i32 @process_command(ptr noundef %0, ptr noundef %1, ptr noundef %2, ptr noundef %3, i32 noundef %4, i32 noundef %5) #1 {
  %7 = alloca i32, align 4
  %8 = alloca ptr, align 8
  %9 = alloca ptr, align 8
  %10 = alloca ptr, align 8
  %11 = alloca ptr, align 8
  %12 = alloca i32, align 4
  %13 = alloca i32, align 4
  %14 = alloca ptr, align 8
  %15 = alloca i32, align 4
  %16 = alloca i32, align 4
  %17 = alloca i32, align 4
  %18 = alloca i32, align 4
  store ptr %0, ptr %8, align 8, !tbaa !4
  store ptr %1, ptr %9, align 8, !tbaa !39
  store ptr %2, ptr %10, align 8, !tbaa !39
  store ptr %3, ptr %11, align 8, !tbaa !39
  store i32 %4, ptr %12, align 4, !tbaa !40
  store i32 %5, ptr %13, align 4, !tbaa !40
  call void @llvm.lifetime.start.p0(i64 8, ptr %14) #10
  %19 = load ptr, ptr %8, align 8, !tbaa !4
  %20 = getelementptr inbounds nuw %struct.AVFilterContext, ptr %19, i32 0, i32 9
  %21 = load ptr, ptr %20, align 8, !tbaa !9
  store ptr %21, ptr %14, align 8, !tbaa !22
  call void @llvm.lifetime.start.p0(i64 4, ptr %15) #10
  call void @llvm.lifetime.start.p0(i64 4, ptr %16) #10
  %22 = load ptr, ptr %14, align 8, !tbaa !22
  %23 = getelementptr inbounds nuw %struct.AudioFIRContext, ptr %22, i32 0, i32 20
  %24 = load i32, ptr %23, align 8, !tbaa !33
  store i32 %24, ptr %15, align 4, !tbaa !40
  %25 = load ptr, ptr %8, align 8, !tbaa !4
  %26 = load ptr, ptr %9, align 8, !tbaa !39
  %27 = load ptr, ptr %10, align 8, !tbaa !39
  %28 = load ptr, ptr %11, align 8, !tbaa !39
  %29 = load i32, ptr %12, align 4, !tbaa !40
  %30 = load i32, ptr %13, align 4, !tbaa !40
  %31 = call i32 @ff_filter_process_command(ptr noundef %25, ptr noundef %26, ptr noundef %27, ptr noundef %28, i32 noundef %29, i32 noundef %30)
  store i32 %31, ptr %16, align 4, !tbaa !40
  %32 = load i32, ptr %16, align 4, !tbaa !40
  %33 = icmp slt i32 %32, 0
  br i1 %33, label %34, label %36

34:                                               ; preds = %6
  %35 = load i32, ptr %16, align 4, !tbaa !40
  store i32 %35, ptr %7, align 4
  store i32 1, ptr %17, align 4
  br label %86

36:                                               ; preds = %6
  %37 = load ptr, ptr %14, align 8, !tbaa !22
  %38 = getelementptr inbounds nuw %struct.AudioFIRContext, ptr %37, i32 0, i32 18
  %39 = load i32, ptr %38, align 8, !tbaa !24
  %40 = sub nsw i32 %39, 1
  %41 = load ptr, ptr %14, align 8, !tbaa !22
  %42 = getelementptr inbounds nuw %struct.AudioFIRContext, ptr %41, i32 0, i32 20
  %43 = load i32, ptr %42, align 8, !tbaa !33
  %44 = icmp sgt i32 %40, %43
  br i1 %44, label %45, label %49

45:                                               ; preds = %36
  %46 = load ptr, ptr %14, align 8, !tbaa !22
  %47 = getelementptr inbounds nuw %struct.AudioFIRContext, ptr %46, i32 0, i32 20
  %48 = load i32, ptr %47, align 8, !tbaa !33
  br label %54

49:                                               ; preds = %36
  %50 = load ptr, ptr %14, align 8, !tbaa !22
  %51 = getelementptr inbounds nuw %struct.AudioFIRContext, ptr %50, i32 0, i32 18
  %52 = load i32, ptr %51, align 8, !tbaa !24
  %53 = sub nsw i32 %52, 1
  br label %54

54:                                               ; preds = %49, %45
  %55 = phi i32 [ %48, %45 ], [ %53, %49 ]
  %56 = load ptr, ptr %14, align 8, !tbaa !22
  %57 = getelementptr inbounds nuw %struct.AudioFIRContext, ptr %56, i32 0, i32 20
  store i32 %55, ptr %57, align 8, !tbaa !33
  %58 = load ptr, ptr %14, align 8, !tbaa !22
  %59 = getelementptr inbounds nuw %struct.AudioFIRContext, ptr %58, i32 0, i32 20
  %60 = load i32, ptr %59, align 8, !tbaa !33
  %61 = load i32, ptr %15, align 4, !tbaa !40
  %62 = icmp ne i32 %60, %61
  br i1 %62, label %63, label %85

63:                                               ; preds = %54
  %64 = load i32, ptr %15, align 4, !tbaa !40
  %65 = load ptr, ptr %14, align 8, !tbaa !22
  %66 = getelementptr inbounds nuw %struct.AudioFIRContext, ptr %65, i32 0, i32 19
  store i32 %64, ptr %66, align 4, !tbaa !34
  call void @llvm.lifetime.start.p0(i64 4, ptr %18) #10
  store i32 0, ptr %18, align 4, !tbaa !40
  br label %67

67:                                               ; preds = %81, %63
  %68 = load i32, ptr %18, align 4, !tbaa !40
  %69 = load ptr, ptr %14, align 8, !tbaa !22
  %70 = getelementptr inbounds nuw %struct.AudioFIRContext, ptr %69, i32 0, i32 28
  %71 = load i32, ptr %70, align 4, !tbaa !66
  %72 = icmp slt i32 %68, %71
  br i1 %72, label %74, label %73

73:                                               ; preds = %67
  store i32 2, ptr %17, align 4
  call void @llvm.lifetime.end.p0(i64 4, ptr %18) #10
  br label %84

74:                                               ; preds = %67
  %75 = load ptr, ptr %14, align 8, !tbaa !22
  %76 = getelementptr inbounds nuw %struct.AudioFIRContext, ptr %75, i32 0, i32 31
  %77 = load ptr, ptr %76, align 8, !tbaa !67
  %78 = load i32, ptr %18, align 4, !tbaa !40
  %79 = sext i32 %78 to i64
  %80 = getelementptr inbounds i32, ptr %77, i64 %79
  store i32 1, ptr %80, align 4, !tbaa !40
  br label %81

81:                                               ; preds = %74
  %82 = load i32, ptr %18, align 4, !tbaa !40
  %83 = add nsw i32 %82, 1
  store i32 %83, ptr %18, align 4, !tbaa !40
  br label %67, !llvm.loop !68

84:                                               ; preds = %73
  br label %85

85:                                               ; preds = %84, %54
  store i32 0, ptr %7, align 4
  store i32 1, ptr %17, align 4
  br label %86

86:                                               ; preds = %85, %34
  call void @llvm.lifetime.end.p0(i64 4, ptr %16) #10
  call void @llvm.lifetime.end.p0(i64 4, ptr %15) #10
  call void @llvm.lifetime.end.p0(i64 8, ptr %14) #10
  %87 = load i32, ptr %7, align 4
  ret i32 %87
}