; Function Attrs: nounwind uwtable
define internal range(i32 -2147483648, 1) i32 @process_command(ptr noundef %0, ptr noundef %1, ptr noundef %2, ptr noundef %3, i32 noundef %4, i32 noundef %5) #1 {
  %7 = getelementptr inbounds nuw i8, ptr %0, i64 72
  %8 = load ptr, ptr %7, align 8, !tbaa !4
  %9 = getelementptr inbounds nuw i8, ptr %8, i64 88
  %10 = load i32, ptr %9, align 8, !tbaa !29
  %11 = tail call i32 @ff_filter_process_command(ptr noundef %0, ptr noundef %1, ptr noundef %2, ptr noundef %3, i32 noundef %4, i32 noundef %5) #10
  %12 = icmp slt i32 %11, 0
  br i1 %12, label %.loopexit, label %13

13:                                               ; preds = %6
  %14 = getelementptr inbounds nuw i8, ptr %8, i64 80
  %15 = load i32, ptr %14, align 8, !tbaa !20
  %16 = add nsw i32 %15, -1
  %17 = load i32, ptr %9, align 8, !tbaa !29
  %. = tail call i32 @llvm.smin.i32(i32 %16, i32 %17)
  store i32 %., ptr %9, align 8, !tbaa !29
  %.not = icmp eq i32 %., %10
  br i1 %.not, label %.loopexit, label %18

18:                                               ; preds = %13
  %19 = getelementptr inbounds nuw i8, ptr %8, i64 84
  store i32 %10, ptr %19, align 4, !tbaa !30
  %20 = getelementptr inbounds nuw i8, ptr %8, i64 740
  %21 = load i32, ptr %20, align 4, !tbaa !47
  %22 = icmp sgt i32 %21, 0
  br i1 %22, label %.lr.ph, label %.loopexit

.lr.ph:                                           ; preds = %18
  %23 = getelementptr inbounds nuw i8, ptr %8, i64 752
  %24 = load ptr, ptr %23, align 8, !tbaa !68
  br label %25

25:                                               ; preds = %.lr.ph, %25
  %indvars.iv = phi i64 [ 0, %.lr.ph ], [ %indvars.iv.next, %25 ]
  %26 = getelementptr inbounds nuw i32, ptr %24, i64 %indvars.iv
  store i32 1, ptr %26, align 4, !tbaa !32
  %indvars.iv.next = add nuw nsw i64 %indvars.iv, 1
  %27 = load i32, ptr %20, align 4, !tbaa !47
  %28 = sext i32 %27 to i64
  %29 = icmp slt i64 %indvars.iv.next, %28
  br i1 %29, label %25, label %.loopexit, !llvm.loop !69

.loopexit:                                        ; preds = %25, %18, %13, %6
  %.024 = phi i32 [ %11, %6 ], [ 0, %13 ], [ 0, %18 ], [ 0, %25 ]
  ret i32 %.024
}